; Function Attrs: nounwind uwtable
define hidden noalias noundef ptr @dfvm_value_new_guint(i32 noundef %0) local_unnamed_addr #2 {
  %2 = tail call noalias noundef dereferenceable_or_null(24) ptr @g_malloc_n(i64 noundef 1, i64 noundef 24) #12
  store i32 6, ptr %2, align 8
  %3 = getelementptr inbounds nuw i8, ptr %2, i64 16
  store i32 0, ptr %3, align 8
  %4 = getelementptr inbounds nuw i8, ptr %2, i64 8
  store i32 %0, ptr %4, align 8
  ret ptr %2
}